
build/minikernel.elf:     file format elf64-littleriscv


Disassembly of section .text:

0000000040000000 <_start>:
    40000000:	f14022f3          	csrr	t0,mhartid
    40000004:	00100313          	li	t1,1
    40000008:	00629863          	bne	t0,t1,40000018 <_hlt>
    4000000c:	00002117          	auipc	sp,0x2
    40000010:	d6410113          	addi	sp,sp,-668 # 40001d70 <_stack_start>
    40000014:	00c000ef          	jal	ra,40000020 <cstart>

0000000040000018 <_hlt>:
    40000018:	10500073          	wfi
    4000001c:	ffdff06f          	j	40000018 <_hlt>

0000000040000020 <cstart>:
    40000020:	fe010113          	addi	sp,sp,-32
    40000024:	00113c23          	sd	ra,24(sp)
    40000028:	00813823          	sd	s0,16(sp)
    4000002c:	02010413          	addi	s0,sp,32
    40000030:	00001797          	auipc	a5,0x1
    40000034:	d3078793          	addi	a5,a5,-720 # 40000d60 <rtc_isr_counter>
    40000038:	fef43423          	sd	a5,-24(s0)
    4000003c:	00001797          	auipc	a5,0x1
    40000040:	d2c78793          	addi	a5,a5,-724 # 40000d68 <_bss_end>
    40000044:	fef43023          	sd	a5,-32(s0)
    40000048:	0140006f          	j	4000005c <cstart+0x3c>
    4000004c:	fe843783          	ld	a5,-24(s0)
    40000050:	00478713          	addi	a4,a5,4
    40000054:	fee43423          	sd	a4,-24(s0)
    40000058:	0007a023          	sw	zero,0(a5)
    4000005c:	fe843703          	ld	a4,-24(s0)
    40000060:	fe043783          	ld	a5,-32(s0)
    40000064:	fef764e3          	bltu	a4,a5,4000004c <cstart+0x2c>
    40000068:	1cc000ef          	jal	ra,40000234 <kmain>
    4000006c:	00000013          	nop
    40000070:	01813083          	ld	ra,24(sp)
    40000074:	01013403          	ld	s0,16(sp)
    40000078:	02010113          	addi	sp,sp,32
    4000007c:	00008067          	ret

0000000040000080 <mtime>:
    40000080:	ff010113          	addi	sp,sp,-16
    40000084:	00813423          	sd	s0,8(sp)
    40000088:	01010413          	addi	s0,sp,16
    4000008c:	0200c7b7          	lui	a5,0x200c
    40000090:	ff878793          	addi	a5,a5,-8 # 200bff8 <_start-0x3dff4008>
    40000094:	0007b783          	ld	a5,0(a5)
    40000098:	00078513          	mv	a0,a5
    4000009c:	00813403          	ld	s0,8(sp)
    400000a0:	01010113          	addi	sp,sp,16
    400000a4:	00008067          	ret

00000000400000a8 <delay_time>:
    400000a8:	fd010113          	addi	sp,sp,-48
    400000ac:	02113423          	sd	ra,40(sp)
    400000b0:	02813023          	sd	s0,32(sp)
    400000b4:	03010413          	addi	s0,sp,48
    400000b8:	fca43c23          	sd	a0,-40(s0)
    400000bc:	fc5ff0ef          	jal	ra,40000080 <mtime>
    400000c0:	fea43423          	sd	a0,-24(s0)
    400000c4:	fbdff0ef          	jal	ra,40000080 <mtime>
    400000c8:	fea43023          	sd	a0,-32(s0)
    400000cc:	fe043703          	ld	a4,-32(s0)
    400000d0:	fe843783          	ld	a5,-24(s0)
    400000d4:	40f707b3          	sub	a5,a4,a5
    400000d8:	fd843703          	ld	a4,-40(s0)
    400000dc:	00e7f463          	bgeu	a5,a4,400000e4 <delay_time+0x3c>
    400000e0:	fe5ff06f          	j	400000c4 <delay_time+0x1c>
    400000e4:	00000013          	nop
    400000e8:	00000013          	nop
    400000ec:	02813083          	ld	ra,40(sp)
    400000f0:	02013403          	ld	s0,32(sp)
    400000f4:	03010113          	addi	sp,sp,48
    400000f8:	00008067          	ret

00000000400000fc <delay_us>:
    400000fc:	fe010113          	addi	sp,sp,-32
    40000100:	00113c23          	sd	ra,24(sp)
    40000104:	00813823          	sd	s0,16(sp)
    40000108:	02010413          	addi	s0,sp,32
    4000010c:	fea43423          	sd	a0,-24(s0)
    40000110:	fe843703          	ld	a4,-24(s0)
    40000114:	003d17b7          	lui	a5,0x3d1
    40000118:	90078793          	addi	a5,a5,-1792 # 3d0900 <_start-0x3fc2f700>
    4000011c:	02f70733          	mul	a4,a4,a5
    40000120:	000f47b7          	lui	a5,0xf4
    40000124:	24078793          	addi	a5,a5,576 # f4240 <_start-0x3ff0bdc0>
    40000128:	02f757b3          	divu	a5,a4,a5
    4000012c:	00078513          	mv	a0,a5
    40000130:	f79ff0ef          	jal	ra,400000a8 <delay_time>
    40000134:	00000013          	nop
    40000138:	01813083          	ld	ra,24(sp)
    4000013c:	01013403          	ld	s0,16(sp)
    40000140:	02010113          	addi	sp,sp,32
    40000144:	00008067          	ret

0000000040000148 <rtc_isr>:
    40000148:	ff010113          	addi	sp,sp,-16
    4000014c:	00113423          	sd	ra,8(sp)
    40000150:	00813023          	sd	s0,0(sp)
    40000154:	01010413          	addi	s0,sp,16
    40000158:	00001797          	auipc	a5,0x1
    4000015c:	c0878793          	addi	a5,a5,-1016 # 40000d60 <rtc_isr_counter>
    40000160:	0007a783          	lw	a5,0(a5)
    40000164:	0007879b          	sext.w	a5,a5
    40000168:	0017879b          	addiw	a5,a5,1
    4000016c:	0007871b          	sext.w	a4,a5
    40000170:	00001797          	auipc	a5,0x1
    40000174:	bf078793          	addi	a5,a5,-1040 # 40000d60 <rtc_isr_counter>
    40000178:	00e7a023          	sw	a4,0(a5)
    4000017c:	00001797          	auipc	a5,0x1
    40000180:	be478793          	addi	a5,a5,-1052 # 40000d60 <rtc_isr_counter>
    40000184:	0007a783          	lw	a5,0(a5)
    40000188:	0007879b          	sext.w	a5,a5
    4000018c:	00078713          	mv	a4,a5
    40000190:	3e800793          	li	a5,1000
    40000194:	02f777bb          	remuw	a5,a4,a5
    40000198:	0007879b          	sext.w	a5,a5
    4000019c:	00079663          	bnez	a5,400001a8 <rtc_isr+0x60>
    400001a0:	03d00513          	li	a0,61
    400001a4:	4b0000ef          	jal	ra,40000654 <toggle_gpio>
    400001a8:	00a00513          	li	a0,10
    400001ac:	231000ef          	jal	ra,40000bdc <complete_interrupt>
    400001b0:	00000013          	nop
    400001b4:	00813083          	ld	ra,8(sp)
    400001b8:	00013403          	ld	s0,0(sp)
    400001bc:	01010113          	addi	sp,sp,16
    400001c0:	00008067          	ret

00000000400001c4 <memset>:
    400001c4:	fc010113          	addi	sp,sp,-64
    400001c8:	02813c23          	sd	s0,56(sp)
    400001cc:	04010413          	addi	s0,sp,64
    400001d0:	fca43c23          	sd	a0,-40(s0)
    400001d4:	00058793          	mv	a5,a1
    400001d8:	fcc43423          	sd	a2,-56(s0)
    400001dc:	fcf42a23          	sw	a5,-44(s0)
    400001e0:	fd843783          	ld	a5,-40(s0)
    400001e4:	fef43423          	sd	a5,-24(s0)
    400001e8:	fe043023          	sd	zero,-32(s0)
    400001ec:	0280006f          	j	40000214 <memset+0x50>
    400001f0:	fe843783          	ld	a5,-24(s0)
    400001f4:	00178713          	addi	a4,a5,1
    400001f8:	fee43423          	sd	a4,-24(s0)
    400001fc:	fd442703          	lw	a4,-44(s0)
    40000200:	0ff77713          	andi	a4,a4,255
    40000204:	00e78023          	sb	a4,0(a5)
    40000208:	fe043783          	ld	a5,-32(s0)
    4000020c:	00178793          	addi	a5,a5,1
    40000210:	fef43023          	sd	a5,-32(s0)
    40000214:	fe043703          	ld	a4,-32(s0)
    40000218:	fc843783          	ld	a5,-56(s0)
    4000021c:	fcf76ae3          	bltu	a4,a5,400001f0 <memset+0x2c>
    40000220:	fd843783          	ld	a5,-40(s0)
    40000224:	00078513          	mv	a0,a5
    40000228:	03813403          	ld	s0,56(sp)
    4000022c:	04010113          	addi	sp,sp,64
    40000230:	00008067          	ret

0000000040000234 <kmain>:
    40000234:	fe010113          	addi	sp,sp,-32
    40000238:	00113c23          	sd	ra,24(sp)
    4000023c:	00813823          	sd	s0,16(sp)
    40000240:	02010413          	addi	s0,sp,32
    40000244:	00001597          	auipc	a1,0x1
    40000248:	a4c58593          	addi	a1,a1,-1460 # 40000c90 <read_memory+0x3c>
    4000024c:	00100513          	li	a0,1
    40000250:	6b0000ef          	jal	ra,40000900 <println_args>
    40000254:	00100793          	li	a5,1
    40000258:	fef407a3          	sb	a5,-17(s0)
    4000025c:	03d00793          	li	a5,61
    40000260:	fef42423          	sw	a5,-24(s0)
    40000264:	00001597          	auipc	a1,0x1
    40000268:	a4c58593          	addi	a1,a1,-1460 # 40000cb0 <read_memory+0x5c>
    4000026c:	00100513          	li	a0,1
    40000270:	690000ef          	jal	ra,40000900 <println_args>
    40000274:	00001597          	auipc	a1,0x1
    40000278:	a5c58593          	addi	a1,a1,-1444 # 40000cd0 <read_memory+0x7c>
    4000027c:	00100513          	li	a0,1
    40000280:	680000ef          	jal	ra,40000900 <println_args>
    40000284:	fef44783          	lbu	a5,-17(s0)
    40000288:	0ff7f793          	andi	a5,a5,255
    4000028c:	00078863          	beqz	a5,4000029c <kmain+0x68>
    40000290:	00001797          	auipc	a5,0x1
    40000294:	a6078793          	addi	a5,a5,-1440 # 40000cf0 <read_memory+0x9c>
    40000298:	00c0006f          	j	400002a4 <kmain+0x70>
    4000029c:	00001797          	auipc	a5,0x1
    400002a0:	a5c78793          	addi	a5,a5,-1444 # 40000cf8 <read_memory+0xa4>
    400002a4:	00078613          	mv	a2,a5
    400002a8:	00001597          	auipc	a1,0x1
    400002ac:	a5858593          	addi	a1,a1,-1448 # 40000d00 <read_memory+0xac>
    400002b0:	00200513          	li	a0,2
    400002b4:	64c000ef          	jal	ra,40000900 <println_args>
    400002b8:	fe842783          	lw	a5,-24(s0)
    400002bc:	fef44703          	lbu	a4,-17(s0)
    400002c0:	0007071b          	sext.w	a4,a4
    400002c4:	00070593          	mv	a1,a4
    400002c8:	00078513          	mv	a0,a5
    400002cc:	248000ef          	jal	ra,40000514 <write_gpio>
    400002d0:	fef44783          	lbu	a5,-17(s0)
    400002d4:	0007879b          	sext.w	a5,a5
    400002d8:	00f037b3          	snez	a5,a5
    400002dc:	0ff7f793          	andi	a5,a5,255
    400002e0:	0017c793          	xori	a5,a5,1
    400002e4:	0ff7f793          	andi	a5,a5,255
    400002e8:	0007879b          	sext.w	a5,a5
    400002ec:	fef407a3          	sb	a5,-17(s0)
    400002f0:	fef44783          	lbu	a5,-17(s0)
    400002f4:	0017f793          	andi	a5,a5,1
    400002f8:	fef407a3          	sb	a5,-17(s0)
    400002fc:	0007a7b7          	lui	a5,0x7a
    40000300:	12078513          	addi	a0,a5,288 # 7a120 <_start-0x3ff85ee0>
    40000304:	df9ff0ef          	jal	ra,400000fc <delay_us>
    40000308:	f7dff06f          	j	40000284 <kmain+0x50>

000000004000030c <set_gpio>:
    4000030c:	fd010113          	addi	sp,sp,-48
    40000310:	02813423          	sd	s0,40(sp)
    40000314:	03010413          	addi	s0,sp,48
    40000318:	00050793          	mv	a5,a0
    4000031c:	fcf42e23          	sw	a5,-36(s0)
    40000320:	fdc42783          	lw	a5,-36(s0)
    40000324:	0007871b          	sext.w	a4,a5
    40000328:	03f00793          	li	a5,63
    4000032c:	10e7ec63          	bltu	a5,a4,40000444 <set_gpio+0x138>
    40000330:	fdc42783          	lw	a5,-36(s0)
    40000334:	0027d79b          	srliw	a5,a5,0x2
    40000338:	fef42623          	sw	a5,-20(s0)
    4000033c:	fdc42783          	lw	a5,-36(s0)
    40000340:	0037f793          	andi	a5,a5,3
    40000344:	0007879b          	sext.w	a5,a5
    40000348:	0037979b          	slliw	a5,a5,0x3
    4000034c:	fef42423          	sw	a5,-24(s0)
    40000350:	00001797          	auipc	a5,0x1
    40000354:	9f878793          	addi	a5,a5,-1544 # 40000d48 <gpio>
    40000358:	0087b703          	ld	a4,8(a5)
    4000035c:	fec46783          	lwu	a5,-20(s0)
    40000360:	00279793          	slli	a5,a5,0x2
    40000364:	00f707b3          	add	a5,a4,a5
    40000368:	0007a783          	lw	a5,0(a5)
    4000036c:	fef42223          	sw	a5,-28(s0)
    40000370:	00001797          	auipc	a5,0x1
    40000374:	9d878793          	addi	a5,a5,-1576 # 40000d48 <gpio>
    40000378:	0007b703          	ld	a4,0(a5)
    4000037c:	fec46783          	lwu	a5,-20(s0)
    40000380:	00279793          	slli	a5,a5,0x2
    40000384:	00f707b3          	add	a5,a4,a5
    40000388:	0007a783          	lw	a5,0(a5)
    4000038c:	fef42023          	sw	a5,-32(s0)
    40000390:	00001797          	auipc	a5,0x1
    40000394:	9b878793          	addi	a5,a5,-1608 # 40000d48 <gpio>
    40000398:	0107a703          	lw	a4,16(a5)
    4000039c:	fe842783          	lw	a5,-24(s0)
    400003a0:	00f717bb          	sllw	a5,a4,a5
    400003a4:	0007879b          	sext.w	a5,a5
    400003a8:	fff7c793          	not	a5,a5
    400003ac:	0007871b          	sext.w	a4,a5
    400003b0:	fe442783          	lw	a5,-28(s0)
    400003b4:	00e7f7b3          	and	a5,a5,a4
    400003b8:	0007869b          	sext.w	a3,a5
    400003bc:	fe842783          	lw	a5,-24(s0)
    400003c0:	00100713          	li	a4,1
    400003c4:	00f717bb          	sllw	a5,a4,a5
    400003c8:	0007879b          	sext.w	a5,a5
    400003cc:	0007861b          	sext.w	a2,a5
    400003d0:	00001797          	auipc	a5,0x1
    400003d4:	97878793          	addi	a5,a5,-1672 # 40000d48 <gpio>
    400003d8:	0087b703          	ld	a4,8(a5)
    400003dc:	fec46783          	lwu	a5,-20(s0)
    400003e0:	00279793          	slli	a5,a5,0x2
    400003e4:	00f707b3          	add	a5,a4,a5
    400003e8:	00060713          	mv	a4,a2
    400003ec:	00e6e733          	or	a4,a3,a4
    400003f0:	0007071b          	sext.w	a4,a4
    400003f4:	00e7a023          	sw	a4,0(a5)
    400003f8:	00001797          	auipc	a5,0x1
    400003fc:	95078793          	addi	a5,a5,-1712 # 40000d48 <gpio>
    40000400:	0147a703          	lw	a4,20(a5)
    40000404:	fe842783          	lw	a5,-24(s0)
    40000408:	00f717bb          	sllw	a5,a4,a5
    4000040c:	0007879b          	sext.w	a5,a5
    40000410:	fff7c793          	not	a5,a5
    40000414:	0007869b          	sext.w	a3,a5
    40000418:	00001797          	auipc	a5,0x1
    4000041c:	93078793          	addi	a5,a5,-1744 # 40000d48 <gpio>
    40000420:	0007b703          	ld	a4,0(a5)
    40000424:	fec46783          	lwu	a5,-20(s0)
    40000428:	00279793          	slli	a5,a5,0x2
    4000042c:	00f707b3          	add	a5,a4,a5
    40000430:	fe042703          	lw	a4,-32(s0)
    40000434:	00d77733          	and	a4,a4,a3
    40000438:	0007071b          	sext.w	a4,a4
    4000043c:	00e7a023          	sw	a4,0(a5)
    40000440:	0080006f          	j	40000448 <set_gpio+0x13c>
    40000444:	00000013          	nop
    40000448:	02813403          	ld	s0,40(sp)
    4000044c:	03010113          	addi	sp,sp,48
    40000450:	00008067          	ret

0000000040000454 <clear_gpio>:
    40000454:	fd010113          	addi	sp,sp,-48
    40000458:	02813423          	sd	s0,40(sp)
    4000045c:	03010413          	addi	s0,sp,48
    40000460:	00050793          	mv	a5,a0
    40000464:	fcf42e23          	sw	a5,-36(s0)
    40000468:	fdc42783          	lw	a5,-36(s0)
    4000046c:	0007871b          	sext.w	a4,a5
    40000470:	03f00793          	li	a5,63
    40000474:	08e7e863          	bltu	a5,a4,40000504 <clear_gpio+0xb0>
    40000478:	fdc42783          	lw	a5,-36(s0)
    4000047c:	0027d79b          	srliw	a5,a5,0x2
    40000480:	fef42623          	sw	a5,-20(s0)
    40000484:	fdc42783          	lw	a5,-36(s0)
    40000488:	0037f793          	andi	a5,a5,3
    4000048c:	0007879b          	sext.w	a5,a5
    40000490:	0037979b          	slliw	a5,a5,0x3
    40000494:	fef42423          	sw	a5,-24(s0)
    40000498:	00001797          	auipc	a5,0x1
    4000049c:	8b078793          	addi	a5,a5,-1872 # 40000d48 <gpio>
    400004a0:	0087b703          	ld	a4,8(a5)
    400004a4:	fec46783          	lwu	a5,-20(s0)
    400004a8:	00279793          	slli	a5,a5,0x2
    400004ac:	00f707b3          	add	a5,a4,a5
    400004b0:	0007a783          	lw	a5,0(a5)
    400004b4:	fef42223          	sw	a5,-28(s0)
    400004b8:	00001797          	auipc	a5,0x1
    400004bc:	89078793          	addi	a5,a5,-1904 # 40000d48 <gpio>
    400004c0:	0107a703          	lw	a4,16(a5)
    400004c4:	fe842783          	lw	a5,-24(s0)
    400004c8:	00f717bb          	sllw	a5,a4,a5
    400004cc:	0007879b          	sext.w	a5,a5
    400004d0:	fff7c793          	not	a5,a5
    400004d4:	0007869b          	sext.w	a3,a5
    400004d8:	00001797          	auipc	a5,0x1
    400004dc:	87078793          	addi	a5,a5,-1936 # 40000d48 <gpio>
    400004e0:	0087b703          	ld	a4,8(a5)
    400004e4:	fec46783          	lwu	a5,-20(s0)
    400004e8:	00279793          	slli	a5,a5,0x2
    400004ec:	00f707b3          	add	a5,a4,a5
    400004f0:	fe442703          	lw	a4,-28(s0)
    400004f4:	00d77733          	and	a4,a4,a3
    400004f8:	0007071b          	sext.w	a4,a4
    400004fc:	00e7a023          	sw	a4,0(a5)
    40000500:	0080006f          	j	40000508 <clear_gpio+0xb4>
    40000504:	00000013          	nop
    40000508:	02813403          	ld	s0,40(sp)
    4000050c:	03010113          	addi	sp,sp,48
    40000510:	00008067          	ret

0000000040000514 <write_gpio>:
    40000514:	fe010113          	addi	sp,sp,-32
    40000518:	00113c23          	sd	ra,24(sp)
    4000051c:	00813823          	sd	s0,16(sp)
    40000520:	02010413          	addi	s0,sp,32
    40000524:	00050793          	mv	a5,a0
    40000528:	00058713          	mv	a4,a1
    4000052c:	fef42623          	sw	a5,-20(s0)
    40000530:	00070793          	mv	a5,a4
    40000534:	fef42423          	sw	a5,-24(s0)
    40000538:	fe842783          	lw	a5,-24(s0)
    4000053c:	0007879b          	sext.w	a5,a5
    40000540:	00078a63          	beqz	a5,40000554 <write_gpio+0x40>
    40000544:	fec42783          	lw	a5,-20(s0)
    40000548:	00078513          	mv	a0,a5
    4000054c:	dc1ff0ef          	jal	ra,4000030c <set_gpio>
    40000550:	0100006f          	j	40000560 <write_gpio+0x4c>
    40000554:	fec42783          	lw	a5,-20(s0)
    40000558:	00078513          	mv	a0,a5
    4000055c:	ef9ff0ef          	jal	ra,40000454 <clear_gpio>
    40000560:	00000013          	nop
    40000564:	01813083          	ld	ra,24(sp)
    40000568:	01013403          	ld	s0,16(sp)
    4000056c:	02010113          	addi	sp,sp,32
    40000570:	00008067          	ret

0000000040000574 <read_gpio>:
    40000574:	fd010113          	addi	sp,sp,-48
    40000578:	02813423          	sd	s0,40(sp)
    4000057c:	03010413          	addi	s0,sp,48
    40000580:	00050793          	mv	a5,a0
    40000584:	fcf42e23          	sw	a5,-36(s0)
    40000588:	fdc42783          	lw	a5,-36(s0)
    4000058c:	0007871b          	sext.w	a4,a5
    40000590:	03f00793          	li	a5,63
    40000594:	00e7f663          	bgeu	a5,a4,400005a0 <read_gpio+0x2c>
    40000598:	04000793          	li	a5,64
    4000059c:	0a80006f          	j	40000644 <read_gpio+0xd0>
    400005a0:	fdc42783          	lw	a5,-36(s0)
    400005a4:	0027d79b          	srliw	a5,a5,0x2
    400005a8:	fef42623          	sw	a5,-20(s0)
    400005ac:	fdc42783          	lw	a5,-36(s0)
    400005b0:	0037f793          	andi	a5,a5,3
    400005b4:	0007879b          	sext.w	a5,a5
    400005b8:	0037979b          	slliw	a5,a5,0x3
    400005bc:	fef42423          	sw	a5,-24(s0)
    400005c0:	00000797          	auipc	a5,0x0
    400005c4:	78878793          	addi	a5,a5,1928 # 40000d48 <gpio>
    400005c8:	0087b703          	ld	a4,8(a5)
    400005cc:	fec46783          	lwu	a5,-20(s0)
    400005d0:	00279793          	slli	a5,a5,0x2
    400005d4:	00f707b3          	add	a5,a4,a5
    400005d8:	0007a783          	lw	a5,0(a5)
    400005dc:	fef42223          	sw	a5,-28(s0)
    400005e0:	00000797          	auipc	a5,0x0
    400005e4:	76878793          	addi	a5,a5,1896 # 40000d48 <gpio>
    400005e8:	0007b703          	ld	a4,0(a5)
    400005ec:	fec46783          	lwu	a5,-20(s0)
    400005f0:	00279793          	slli	a5,a5,0x2
    400005f4:	00f707b3          	add	a5,a4,a5
    400005f8:	0007a783          	lw	a5,0(a5)
    400005fc:	fef42023          	sw	a5,-32(s0)
    40000600:	fe842783          	lw	a5,-24(s0)
    40000604:	fe442703          	lw	a4,-28(s0)
    40000608:	00f757bb          	srlw	a5,a4,a5
    4000060c:	0007869b          	sext.w	a3,a5
    40000610:	fe842783          	lw	a5,-24(s0)
    40000614:	fe042703          	lw	a4,-32(s0)
    40000618:	00f757bb          	srlw	a5,a4,a5
    4000061c:	0007879b          	sext.w	a5,a5
    40000620:	0017f793          	andi	a5,a5,1
    40000624:	0007879b          	sext.w	a5,a5
    40000628:	fff7c793          	not	a5,a5
    4000062c:	0007879b          	sext.w	a5,a5
    40000630:	00068713          	mv	a4,a3
    40000634:	00f777b3          	and	a5,a4,a5
    40000638:	0007879b          	sext.w	a5,a5
    4000063c:	0017f793          	andi	a5,a5,1
    40000640:	0007879b          	sext.w	a5,a5
    40000644:	00078513          	mv	a0,a5
    40000648:	02813403          	ld	s0,40(sp)
    4000064c:	03010113          	addi	sp,sp,48
    40000650:	00008067          	ret

0000000040000654 <toggle_gpio>:
    40000654:	fd010113          	addi	sp,sp,-48
    40000658:	02113423          	sd	ra,40(sp)
    4000065c:	02813023          	sd	s0,32(sp)
    40000660:	03010413          	addi	s0,sp,48
    40000664:	00050793          	mv	a5,a0
    40000668:	fcf42e23          	sw	a5,-36(s0)
    4000066c:	fdc42783          	lw	a5,-36(s0)
    40000670:	0007871b          	sext.w	a4,a5
    40000674:	03f00793          	li	a5,63
    40000678:	04e7ea63          	bltu	a5,a4,400006cc <toggle_gpio+0x78>
    4000067c:	fdc42783          	lw	a5,-36(s0)
    40000680:	00078513          	mv	a0,a5
    40000684:	ef1ff0ef          	jal	ra,40000574 <read_gpio>
    40000688:	00050793          	mv	a5,a0
    4000068c:	fef42623          	sw	a5,-20(s0)
    40000690:	fec42783          	lw	a5,-20(s0)
    40000694:	0007871b          	sext.w	a4,a5
    40000698:	04000793          	li	a5,64
    4000069c:	02f70c63          	beq	a4,a5,400006d4 <toggle_gpio+0x80>
    400006a0:	fec42783          	lw	a5,-20(s0)
    400006a4:	0007879b          	sext.w	a5,a5
    400006a8:	00078a63          	beqz	a5,400006bc <toggle_gpio+0x68>
    400006ac:	fdc42783          	lw	a5,-36(s0)
    400006b0:	00078513          	mv	a0,a5
    400006b4:	da1ff0ef          	jal	ra,40000454 <clear_gpio>
    400006b8:	0200006f          	j	400006d8 <toggle_gpio+0x84>
    400006bc:	fdc42783          	lw	a5,-36(s0)
    400006c0:	00078513          	mv	a0,a5
    400006c4:	c49ff0ef          	jal	ra,4000030c <set_gpio>
    400006c8:	0100006f          	j	400006d8 <toggle_gpio+0x84>
    400006cc:	00000013          	nop
    400006d0:	0080006f          	j	400006d8 <toggle_gpio+0x84>
    400006d4:	00000013          	nop
    400006d8:	02813083          	ld	ra,40(sp)
    400006dc:	02013403          	ld	s0,32(sp)
    400006e0:	03010113          	addi	sp,sp,48
    400006e4:	00008067          	ret

00000000400006e8 <lsr_uart>:
    400006e8:	fe010113          	addi	sp,sp,-32
    400006ec:	00813c23          	sd	s0,24(sp)
    400006f0:	02010413          	addi	s0,sp,32
    400006f4:	00000797          	auipc	a5,0x0
    400006f8:	61c78793          	addi	a5,a5,1564 # 40000d10 <uart>
    400006fc:	0007a783          	lw	a5,0(a5)
    40000700:	0147879b          	addiw	a5,a5,20
    40000704:	fef42623          	sw	a5,-20(s0)
    40000708:	fec46783          	lwu	a5,-20(s0)
    4000070c:	0007a783          	lw	a5,0(a5)
    40000710:	0007879b          	sext.w	a5,a5
    40000714:	00078513          	mv	a0,a5
    40000718:	01813403          	ld	s0,24(sp)
    4000071c:	02010113          	addi	sp,sp,32
    40000720:	00008067          	ret

0000000040000724 <thr_uart>:
    40000724:	fd010113          	addi	sp,sp,-48
    40000728:	02813423          	sd	s0,40(sp)
    4000072c:	03010413          	addi	s0,sp,48
    40000730:	00050793          	mv	a5,a0
    40000734:	fcf40fa3          	sb	a5,-33(s0)
    40000738:	00000797          	auipc	a5,0x0
    4000073c:	5d878793          	addi	a5,a5,1496 # 40000d10 <uart>
    40000740:	0007a783          	lw	a5,0(a5)
    40000744:	fef42623          	sw	a5,-20(s0)
    40000748:	fec46783          	lwu	a5,-20(s0)
    4000074c:	00078713          	mv	a4,a5
    40000750:	fdf44783          	lbu	a5,-33(s0)
    40000754:	0007879b          	sext.w	a5,a5
    40000758:	00f72023          	sw	a5,0(a4)
    4000075c:	00000013          	nop
    40000760:	02813403          	ld	s0,40(sp)
    40000764:	03010113          	addi	sp,sp,48
    40000768:	00008067          	ret

000000004000076c <tx_uart>:
    4000076c:	fe010113          	addi	sp,sp,-32
    40000770:	00113c23          	sd	ra,24(sp)
    40000774:	00813823          	sd	s0,16(sp)
    40000778:	02010413          	addi	s0,sp,32
    4000077c:	00050793          	mv	a5,a0
    40000780:	fef407a3          	sb	a5,-17(s0)
    40000784:	00000013          	nop
    40000788:	f61ff0ef          	jal	ra,400006e8 <lsr_uart>
    4000078c:	00050793          	mv	a5,a0
    40000790:	0007879b          	sext.w	a5,a5
    40000794:	0057d79b          	srliw	a5,a5,0x5
    40000798:	0007879b          	sext.w	a5,a5
    4000079c:	0017f793          	andi	a5,a5,1
    400007a0:	0007879b          	sext.w	a5,a5
    400007a4:	00078713          	mv	a4,a5
    400007a8:	00100793          	li	a5,1
    400007ac:	fcf71ee3          	bne	a4,a5,40000788 <tx_uart+0x1c>
    400007b0:	fef44783          	lbu	a5,-17(s0)
    400007b4:	00078513          	mv	a0,a5
    400007b8:	f6dff0ef          	jal	ra,40000724 <thr_uart>
    400007bc:	00000013          	nop
    400007c0:	01813083          	ld	ra,24(sp)
    400007c4:	01013403          	ld	s0,16(sp)
    400007c8:	02010113          	addi	sp,sp,32
    400007cc:	00008067          	ret

00000000400007d0 <printElem_char>:
    400007d0:	fe010113          	addi	sp,sp,-32
    400007d4:	00113c23          	sd	ra,24(sp)
    400007d8:	00813823          	sd	s0,16(sp)
    400007dc:	02010413          	addi	s0,sp,32
    400007e0:	00050793          	mv	a5,a0
    400007e4:	fef407a3          	sb	a5,-17(s0)
    400007e8:	fef44783          	lbu	a5,-17(s0)
    400007ec:	00078513          	mv	a0,a5
    400007f0:	f7dff0ef          	jal	ra,4000076c <tx_uart>
    400007f4:	00000013          	nop
    400007f8:	01813083          	ld	ra,24(sp)
    400007fc:	01013403          	ld	s0,16(sp)
    40000800:	02010113          	addi	sp,sp,32
    40000804:	00008067          	ret

0000000040000808 <printElem_str>:
    40000808:	fe010113          	addi	sp,sp,-32
    4000080c:	00113c23          	sd	ra,24(sp)
    40000810:	00813823          	sd	s0,16(sp)
    40000814:	02010413          	addi	s0,sp,32
    40000818:	fea43423          	sd	a0,-24(s0)
    4000081c:	01c0006f          	j	40000838 <printElem_str+0x30>
    40000820:	fe843783          	ld	a5,-24(s0)
    40000824:	00178713          	addi	a4,a5,1
    40000828:	fee43423          	sd	a4,-24(s0)
    4000082c:	0007c783          	lbu	a5,0(a5)
    40000830:	00078513          	mv	a0,a5
    40000834:	f39ff0ef          	jal	ra,4000076c <tx_uart>
    40000838:	fe843783          	ld	a5,-24(s0)
    4000083c:	0007c783          	lbu	a5,0(a5)
    40000840:	fe0790e3          	bnez	a5,40000820 <printElem_str+0x18>
    40000844:	00000013          	nop
    40000848:	00000013          	nop
    4000084c:	01813083          	ld	ra,24(sp)
    40000850:	01013403          	ld	s0,16(sp)
    40000854:	02010113          	addi	sp,sp,32
    40000858:	00008067          	ret

000000004000085c <print_args>:
    4000085c:	f8010113          	addi	sp,sp,-128
    40000860:	02113c23          	sd	ra,56(sp)
    40000864:	02813823          	sd	s0,48(sp)
    40000868:	04010413          	addi	s0,sp,64
    4000086c:	00b43423          	sd	a1,8(s0)
    40000870:	00c43823          	sd	a2,16(s0)
    40000874:	00d43c23          	sd	a3,24(s0)
    40000878:	02e43023          	sd	a4,32(s0)
    4000087c:	02f43423          	sd	a5,40(s0)
    40000880:	03043823          	sd	a6,48(s0)
    40000884:	03143c23          	sd	a7,56(s0)
    40000888:	00050793          	mv	a5,a0
    4000088c:	fcf42623          	sw	a5,-52(s0)
    40000890:	04040793          	addi	a5,s0,64
    40000894:	fcf43023          	sd	a5,-64(s0)
    40000898:	fc043783          	ld	a5,-64(s0)
    4000089c:	fc878793          	addi	a5,a5,-56
    400008a0:	fcf43c23          	sd	a5,-40(s0)
    400008a4:	fe042623          	sw	zero,-20(s0)
    400008a8:	02c0006f          	j	400008d4 <print_args+0x78>
    400008ac:	fd843783          	ld	a5,-40(s0)
    400008b0:	00878713          	addi	a4,a5,8
    400008b4:	fce43c23          	sd	a4,-40(s0)
    400008b8:	0007b783          	ld	a5,0(a5)
    400008bc:	fef43023          	sd	a5,-32(s0)
    400008c0:	fe043503          	ld	a0,-32(s0)
    400008c4:	f45ff0ef          	jal	ra,40000808 <printElem_str>
    400008c8:	fec42783          	lw	a5,-20(s0)
    400008cc:	0017879b          	addiw	a5,a5,1
    400008d0:	fef42623          	sw	a5,-20(s0)
    400008d4:	fec42703          	lw	a4,-20(s0)
    400008d8:	fcc42783          	lw	a5,-52(s0)
    400008dc:	0007071b          	sext.w	a4,a4
    400008e0:	0007879b          	sext.w	a5,a5
    400008e4:	fcf744e3          	blt	a4,a5,400008ac <print_args+0x50>
    400008e8:	00000013          	nop
    400008ec:	00000013          	nop
    400008f0:	03813083          	ld	ra,56(sp)
    400008f4:	03013403          	ld	s0,48(sp)
    400008f8:	08010113          	addi	sp,sp,128
    400008fc:	00008067          	ret

0000000040000900 <println_args>:
    40000900:	f8010113          	addi	sp,sp,-128
    40000904:	02113c23          	sd	ra,56(sp)
    40000908:	02813823          	sd	s0,48(sp)
    4000090c:	04010413          	addi	s0,sp,64
    40000910:	00b43423          	sd	a1,8(s0)
    40000914:	00c43823          	sd	a2,16(s0)
    40000918:	00d43c23          	sd	a3,24(s0)
    4000091c:	02e43023          	sd	a4,32(s0)
    40000920:	02f43423          	sd	a5,40(s0)
    40000924:	03043823          	sd	a6,48(s0)
    40000928:	03143c23          	sd	a7,56(s0)
    4000092c:	00050793          	mv	a5,a0
    40000930:	fcf42623          	sw	a5,-52(s0)
    40000934:	04040793          	addi	a5,s0,64
    40000938:	fcf43023          	sd	a5,-64(s0)
    4000093c:	fc043783          	ld	a5,-64(s0)
    40000940:	fc878793          	addi	a5,a5,-56
    40000944:	fcf43c23          	sd	a5,-40(s0)
    40000948:	fe042623          	sw	zero,-20(s0)
    4000094c:	02c0006f          	j	40000978 <println_args+0x78>
    40000950:	fd843783          	ld	a5,-40(s0)
    40000954:	00878713          	addi	a4,a5,8
    40000958:	fce43c23          	sd	a4,-40(s0)
    4000095c:	0007b783          	ld	a5,0(a5)
    40000960:	fef43023          	sd	a5,-32(s0)
    40000964:	fe043503          	ld	a0,-32(s0)
    40000968:	ea1ff0ef          	jal	ra,40000808 <printElem_str>
    4000096c:	fec42783          	lw	a5,-20(s0)
    40000970:	0017879b          	addiw	a5,a5,1
    40000974:	fef42623          	sw	a5,-20(s0)
    40000978:	fec42703          	lw	a4,-20(s0)
    4000097c:	fcc42783          	lw	a5,-52(s0)
    40000980:	0007071b          	sext.w	a4,a4
    40000984:	0007879b          	sext.w	a5,a5
    40000988:	fcf744e3          	blt	a4,a5,40000950 <println_args+0x50>
    4000098c:	00a00513          	li	a0,10
    40000990:	dddff0ef          	jal	ra,4000076c <tx_uart>
    40000994:	00000013          	nop
    40000998:	03813083          	ld	ra,56(sp)
    4000099c:	03013403          	ld	s0,48(sp)
    400009a0:	08010113          	addi	sp,sp,128
    400009a4:	00008067          	ret

00000000400009a8 <print>:
    400009a8:	ff010113          	addi	sp,sp,-16
    400009ac:	00813423          	sd	s0,8(sp)
    400009b0:	01010413          	addi	s0,sp,16
    400009b4:	00000013          	nop
    400009b8:	00813403          	ld	s0,8(sp)
    400009bc:	01010113          	addi	sp,sp,16
    400009c0:	00008067          	ret

00000000400009c4 <println>:
    400009c4:	ff010113          	addi	sp,sp,-16
    400009c8:	00113423          	sd	ra,8(sp)
    400009cc:	00813023          	sd	s0,0(sp)
    400009d0:	01010413          	addi	s0,sp,16
    400009d4:	00a00513          	li	a0,10
    400009d8:	d95ff0ef          	jal	ra,4000076c <tx_uart>
    400009dc:	00000013          	nop
    400009e0:	00813083          	ld	ra,8(sp)
    400009e4:	00013403          	ld	s0,0(sp)
    400009e8:	01010113          	addi	sp,sp,16
    400009ec:	00008067          	ret

00000000400009f0 <configure_ISR>:
    400009f0:	fb010113          	addi	sp,sp,-80
    400009f4:	04813423          	sd	s0,72(sp)
    400009f8:	05010413          	addi	s0,sp,80
    400009fc:	00050793          	mv	a5,a0
    40000a00:	00060713          	mv	a4,a2
    40000a04:	fad43c23          	sd	a3,-72(s0)
    40000a08:	fcf42623          	sw	a5,-52(s0)
    40000a0c:	00058793          	mv	a5,a1
    40000a10:	fcf42423          	sw	a5,-56(s0)
    40000a14:	00070793          	mv	a5,a4
    40000a18:	fcf42223          	sw	a5,-60(s0)
    40000a1c:	fcc42783          	lw	a5,-52(s0)
    40000a20:	0007879b          	sext.w	a5,a5
    40000a24:	12078663          	beqz	a5,40000b50 <configure_ISR+0x160>
    40000a28:	fcc42783          	lw	a5,-52(s0)
    40000a2c:	0007871b          	sext.w	a4,a5
    40000a30:	08800793          	li	a5,136
    40000a34:	10e7ee63          	bltu	a5,a4,40000b50 <configure_ISR+0x160>
    40000a38:	fc842783          	lw	a5,-56(s0)
    40000a3c:	0007871b          	sext.w	a4,a5
    40000a40:	00700793          	li	a5,7
    40000a44:	10e7ea63          	bltu	a5,a4,40000b58 <configure_ISR+0x168>
    40000a48:	fc442783          	lw	a5,-60(s0)
    40000a4c:	0007871b          	sext.w	a4,a5
    40000a50:	00700793          	li	a5,7
    40000a54:	10e7e663          	bltu	a5,a4,40000b60 <configure_ISR+0x170>
    40000a58:	fcc42703          	lw	a4,-52(s0)
    40000a5c:	030007b7          	lui	a5,0x3000
    40000a60:	0017879b          	addiw	a5,a5,1
    40000a64:	00f707bb          	addw	a5,a4,a5
    40000a68:	0007879b          	sext.w	a5,a5
    40000a6c:	0027979b          	slliw	a5,a5,0x2
    40000a70:	0007879b          	sext.w	a5,a5
    40000a74:	02079793          	slli	a5,a5,0x20
    40000a78:	0207d793          	srli	a5,a5,0x20
    40000a7c:	fef43423          	sd	a5,-24(s0)
    40000a80:	fe843783          	ld	a5,-24(s0)
    40000a84:	fc842703          	lw	a4,-56(s0)
    40000a88:	00e7a023          	sw	a4,0(a5) # 3000000 <_start-0x3d000000>
    40000a8c:	fcc42783          	lw	a5,-52(s0)
    40000a90:	fe07f793          	andi	a5,a5,-32
    40000a94:	0007871b          	sext.w	a4,a5
    40000a98:	0c0027b7          	lui	a5,0xc002
    40000a9c:	0807879b          	addiw	a5,a5,128
    40000aa0:	00f707bb          	addw	a5,a4,a5
    40000aa4:	0007879b          	sext.w	a5,a5
    40000aa8:	02079793          	slli	a5,a5,0x20
    40000aac:	0207d793          	srli	a5,a5,0x20
    40000ab0:	fef43023          	sd	a5,-32(s0)
    40000ab4:	fe043783          	ld	a5,-32(s0)
    40000ab8:	0007a783          	lw	a5,0(a5) # c002000 <_start-0x33ffe000>
    40000abc:	0007869b          	sext.w	a3,a5
    40000ac0:	fcc42783          	lw	a5,-52(s0)
    40000ac4:	00100713          	li	a4,1
    40000ac8:	00f717bb          	sllw	a5,a4,a5
    40000acc:	0007879b          	sext.w	a5,a5
    40000ad0:	0007879b          	sext.w	a5,a5
    40000ad4:	00068713          	mv	a4,a3
    40000ad8:	00f767b3          	or	a5,a4,a5
    40000adc:	0007871b          	sext.w	a4,a5
    40000ae0:	fe043783          	ld	a5,-32(s0)
    40000ae4:	00e7a023          	sw	a4,0(a5)
    40000ae8:	fcc42703          	lw	a4,-52(s0)
    40000aec:	030807b7          	lui	a5,0x3080
    40000af0:	4007879b          	addiw	a5,a5,1024
    40000af4:	00f707bb          	addw	a5,a4,a5
    40000af8:	0007879b          	sext.w	a5,a5
    40000afc:	0027979b          	slliw	a5,a5,0x2
    40000b00:	0007879b          	sext.w	a5,a5
    40000b04:	02079793          	slli	a5,a5,0x20
    40000b08:	0207d793          	srli	a5,a5,0x20
    40000b0c:	fcf43c23          	sd	a5,-40(s0)
    40000b10:	fd843783          	ld	a5,-40(s0)
    40000b14:	fc442703          	lw	a4,-60(s0)
    40000b18:	00e7a023          	sw	a4,0(a5) # 3080000 <_start-0x3cf80000>
    40000b1c:	fcc42783          	lw	a5,-52(s0)
    40000b20:	0027979b          	slliw	a5,a5,0x2
    40000b24:	0007879b          	sext.w	a5,a5
    40000b28:	3057879b          	addiw	a5,a5,773
    40000b2c:	0007879b          	sext.w	a5,a5
    40000b30:	02079793          	slli	a5,a5,0x20
    40000b34:	0207d793          	srli	a5,a5,0x20
    40000b38:	fcf43823          	sd	a5,-48(s0)
    40000b3c:	fb843783          	ld	a5,-72(s0)
    40000b40:	0007871b          	sext.w	a4,a5
    40000b44:	fd043783          	ld	a5,-48(s0)
    40000b48:	00e7a023          	sw	a4,0(a5)
    40000b4c:	0180006f          	j	40000b64 <configure_ISR+0x174>
    40000b50:	00000013          	nop
    40000b54:	0100006f          	j	40000b64 <configure_ISR+0x174>
    40000b58:	00000013          	nop
    40000b5c:	0080006f          	j	40000b64 <configure_ISR+0x174>
    40000b60:	00000013          	nop
    40000b64:	04813403          	ld	s0,72(sp)
    40000b68:	05010113          	addi	sp,sp,80
    40000b6c:	00008067          	ret

0000000040000b70 <enable_global_interrupts>:
    40000b70:	ff010113          	addi	sp,sp,-16
    40000b74:	00113423          	sd	ra,8(sp)
    40000b78:	00813023          	sd	s0,0(sp)
    40000b7c:	01010413          	addi	s0,sp,16
    40000b80:	000017b7          	lui	a5,0x1
    40000b84:	80078593          	addi	a1,a5,-2048 # 800 <_start-0x3ffff800>
    40000b88:	30400513          	li	a0,772
    40000b8c:	084000ef          	jal	ra,40000c10 <write_memory>
    40000b90:	00800593          	li	a1,8
    40000b94:	30000513          	li	a0,768
    40000b98:	078000ef          	jal	ra,40000c10 <write_memory>
    40000b9c:	00000013          	nop
    40000ba0:	00813083          	ld	ra,8(sp)
    40000ba4:	00013403          	ld	s0,0(sp)
    40000ba8:	01010113          	addi	sp,sp,16
    40000bac:	00008067          	ret

0000000040000bb0 <claim_interrupt>:
    40000bb0:	ff010113          	addi	sp,sp,-16
    40000bb4:	00813423          	sd	s0,8(sp)
    40000bb8:	01010413          	addi	s0,sp,16
    40000bbc:	0c2017b7          	lui	a5,0xc201
    40000bc0:	00478793          	addi	a5,a5,4 # c201004 <_start-0x33dfeffc>
    40000bc4:	0007a783          	lw	a5,0(a5)
    40000bc8:	0007879b          	sext.w	a5,a5
    40000bcc:	00078513          	mv	a0,a5
    40000bd0:	00813403          	ld	s0,8(sp)
    40000bd4:	01010113          	addi	sp,sp,16
    40000bd8:	00008067          	ret

0000000040000bdc <complete_interrupt>:
    40000bdc:	fe010113          	addi	sp,sp,-32
    40000be0:	00813c23          	sd	s0,24(sp)
    40000be4:	02010413          	addi	s0,sp,32
    40000be8:	00050793          	mv	a5,a0
    40000bec:	fef42623          	sw	a5,-20(s0)
    40000bf0:	0c2017b7          	lui	a5,0xc201
    40000bf4:	00478793          	addi	a5,a5,4 # c201004 <_start-0x33dfeffc>
    40000bf8:	fec42703          	lw	a4,-20(s0)
    40000bfc:	00e7a023          	sw	a4,0(a5)
    40000c00:	00000013          	nop
    40000c04:	01813403          	ld	s0,24(sp)
    40000c08:	02010113          	addi	sp,sp,32
    40000c0c:	00008067          	ret

0000000040000c10 <write_memory>:
    40000c10:	fd010113          	addi	sp,sp,-48
    40000c14:	02813423          	sd	s0,40(sp)
    40000c18:	03010413          	addi	s0,sp,48
    40000c1c:	00050793          	mv	a5,a0
    40000c20:	00058713          	mv	a4,a1
    40000c24:	fcf42e23          	sw	a5,-36(s0)
    40000c28:	00070793          	mv	a5,a4
    40000c2c:	fcf42c23          	sw	a5,-40(s0)
    40000c30:	fdc46783          	lwu	a5,-36(s0)
    40000c34:	fef43423          	sd	a5,-24(s0)
    40000c38:	fe843783          	ld	a5,-24(s0)
    40000c3c:	fd842703          	lw	a4,-40(s0)
    40000c40:	00e7a023          	sw	a4,0(a5)
    40000c44:	00000013          	nop
    40000c48:	02813403          	ld	s0,40(sp)
    40000c4c:	03010113          	addi	sp,sp,48
    40000c50:	00008067          	ret

0000000040000c54 <read_memory>:
    40000c54:	fd010113          	addi	sp,sp,-48
    40000c58:	02813423          	sd	s0,40(sp)
    40000c5c:	03010413          	addi	s0,sp,48
    40000c60:	00050793          	mv	a5,a0
    40000c64:	fcf42e23          	sw	a5,-36(s0)
    40000c68:	fdc46783          	lwu	a5,-36(s0)
    40000c6c:	fef43423          	sd	a5,-24(s0)
    40000c70:	fe843783          	ld	a5,-24(s0)
    40000c74:	0007a783          	lw	a5,0(a5)
    40000c78:	0007879b          	sext.w	a5,a5
    40000c7c:	00078513          	mv	a0,a5
    40000c80:	02813403          	ld	s0,40(sp)
    40000c84:	03010113          	addi	sp,sp,48
    40000c88:	00008067          	ret

Disassembly of section .kstack:

0000000040000d68 <_stack_start-0x1008>:
	...
